target datalayout = "e-m:e-p270:32:32-p271:32:32-p272:64:64-i64:64-i128:128-f80:128-n8:16:32:64-S128"
target triple = "x86_64-unknown-linux-gnu"

%"class.google::protobuf::compiler::cpp::FileGenerator" = type { %"class.absl::lts_20230802::flat_hash_set", %"class.std::vector", ptr, %"struct.google::protobuf::compiler::cpp::Options", %"class.google::protobuf::compiler::cpp::MessageSCCAnalyzer", %"class.absl::lts_20230802::flat_hash_map.53", %"class.std::vector.62", %"class.std::vector.67", %"class.std::vector.72", %"class.std::vector.77", %"class.std::vector.82" }
%"class.absl::lts_20230802::flat_hash_set" = type { %"class.absl::lts_20230802::container_internal::raw_hash_set" }
%"class.absl::lts_20230802::container_internal::raw_hash_set" = type { %"class.absl::lts_20230802::container_internal::CompressedTuple" }
%"class.absl::lts_20230802::container_internal::CompressedTuple" = type { %"struct.absl::lts_20230802::container_internal::internal_compressed_tuple::CompressedTupleImpl" }
%"struct.absl::lts_20230802::container_internal::internal_compressed_tuple::CompressedTupleImpl" = type { %"struct.absl::lts_20230802::container_internal::internal_compressed_tuple::Storage" }
%"struct.absl::lts_20230802::container_internal::internal_compressed_tuple::Storage" = type { %"class.absl::lts_20230802::container_internal::CommonFields" }
%"class.absl::lts_20230802::container_internal::CommonFields" = type { ptr, ptr, i64, %"class.absl::lts_20230802::container_internal::CompressedTuple.0" }
%"class.absl::lts_20230802::container_internal::CompressedTuple.0" = type { %"struct.absl::lts_20230802::container_internal::internal_compressed_tuple::CompressedTupleImpl.1" }
%"struct.absl::lts_20230802::container_internal::internal_compressed_tuple::CompressedTupleImpl.1" = type { %"struct.absl::lts_20230802::container_internal::internal_compressed_tuple::Storage.2" }
%"struct.absl::lts_20230802::container_internal::internal_compressed_tuple::Storage.2" = type { i64 }
%"class.std::vector" = type { %"struct.std::_Vector_base" }
%"struct.std::_Vector_base" = type { %"struct.std::_Vector_base<absl::lts_20230802::AnyInvocable<void (google::protobuf::io::Printer *)>, std::allocator<absl::lts_20230802::AnyInvocable<void (google::protobuf::io::Printer *)>>>::_Vector_impl" }
%"struct.std::_Vector_base<absl::lts_20230802::AnyInvocable<void (google::protobuf::io::Printer *)>, std::allocator<absl::lts_20230802::AnyInvocable<void (google::protobuf::io::Printer *)>>>::_Vector_impl" = type { %"struct.std::_Vector_base<absl::lts_20230802::AnyInvocable<void (google::protobuf::io::Printer *)>, std::allocator<absl::lts_20230802::AnyInvocable<void (google::protobuf::io::Printer *)>>>::_Vector_impl_data" }
%"struct.std::_Vector_base<absl::lts_20230802::AnyInvocable<void (google::protobuf::io::Printer *)>, std::allocator<absl::lts_20230802::AnyInvocable<void (google::protobuf::io::Printer *)>>>::_Vector_impl_data" = type { ptr, ptr, ptr }
%"struct.google::protobuf::compiler::cpp::Options" = type <{ ptr, ptr, %"class.std::__cxx11::basic_string", %"class.std::__cxx11::basic_string", %"class.std::__cxx11::basic_string", %"class.std::__cxx11::basic_string", %"struct.google::protobuf::compiler::cpp::FieldListenerOptions", i32, i32, i8, i8, i8, i8, i8, i8, i8, i8, i8, i8, i8, i8, i8, i8, [2 x i8] }>
%"class.std::__cxx11::basic_string" = type { %"struct.std::__cxx11::basic_string<char>::_Alloc_hider", i64, %union.anon }
%"struct.std::__cxx11::basic_string<char>::_Alloc_hider" = type { ptr }
%union.anon = type { i64, [8 x i8] }
%"struct.google::protobuf::compiler::cpp::FieldListenerOptions" = type { i8, %"class.absl::lts_20230802::flat_hash_set.13" }
%"class.absl::lts_20230802::flat_hash_set.13" = type { %"class.absl::lts_20230802::container_internal::raw_hash_set.14" }
%"class.absl::lts_20230802::container_internal::raw_hash_set.14" = type { %"class.absl::lts_20230802::container_internal::CompressedTuple.15" }
%"class.absl::lts_20230802::container_internal::CompressedTuple.15" = type { %"struct.absl::lts_20230802::container_internal::internal_compressed_tuple::CompressedTupleImpl.16" }
%"struct.absl::lts_20230802::container_internal::internal_compressed_tuple::CompressedTupleImpl.16" = type { %"struct.absl::lts_20230802::container_internal::internal_compressed_tuple::Storage" }
%"class.google::protobuf::compiler::cpp::MessageSCCAnalyzer" = type { %"class.google::protobuf::compiler::SCCAnalyzer", %"struct.google::protobuf::compiler::cpp::Options", %"class.absl::lts_20230802::flat_hash_map.42" }
%"class.google::protobuf::compiler::SCCAnalyzer" = type { %"class.absl::lts_20230802::flat_hash_map", %"class.std::vector.32", i32, %"class.std::vector.37" }
%"class.absl::lts_20230802::flat_hash_map" = type { %"class.absl::lts_20230802::container_internal::raw_hash_map" }
%"class.absl::lts_20230802::container_internal::raw_hash_map" = type { %"class.absl::lts_20230802::container_internal::raw_hash_set.23" }
%"class.absl::lts_20230802::container_internal::raw_hash_set.23" = type { %"class.absl::lts_20230802::container_internal::CompressedTuple.24" }
%"class.absl::lts_20230802::container_internal::CompressedTuple.24" = type { %"struct.absl::lts_20230802::container_internal::internal_compressed_tuple::CompressedTupleImpl.25" }
%"struct.absl::lts_20230802::container_internal::internal_compressed_tuple::CompressedTupleImpl.25" = type { %"struct.absl::lts_20230802::container_internal::internal_compressed_tuple::Storage" }
%"class.std::vector.32" = type { %"struct.std::_Vector_base.33" }
%"struct.std::_Vector_base.33" = type { %"struct.std::_Vector_base<const google::protobuf::Descriptor *, std::allocator<const google::protobuf::Descriptor *>>::_Vector_impl" }
%"struct.std::_Vector_base<const google::protobuf::Descriptor *, std::allocator<const google::protobuf::Descriptor *>>::_Vector_impl" = type { %"struct.std::_Vector_base<const google::protobuf::Descriptor *, std::allocator<const google::protobuf::Descriptor *>>::_Vector_impl_data" }
%"struct.std::_Vector_base<const google::protobuf::Descriptor *, std::allocator<const google::protobuf::Descriptor *>>::_Vector_impl_data" = type { ptr, ptr, ptr }
%"class.std::vector.37" = type { %"struct.std::_Vector_base.38" }
%"struct.std::_Vector_base.38" = type { %"struct.std::_Vector_base<std::unique_ptr<google::protobuf::compiler::SCC>, std::allocator<std::unique_ptr<google::protobuf::compiler::SCC>>>::_Vector_impl" }
%"struct.std::_Vector_base<std::unique_ptr<google::protobuf::compiler::SCC>, std::allocator<std::unique_ptr<google::protobuf::compiler::SCC>>>::_Vector_impl" = type { %"struct.std::_Vector_base<std::unique_ptr<google::protobuf::compiler::SCC>, std::allocator<std::unique_ptr<google::protobuf::compiler::SCC>>>::_Vector_impl_data" }
%"struct.std::_Vector_base<std::unique_ptr<google::protobuf::compiler::SCC>, std::allocator<std::unique_ptr<google::protobuf::compiler::SCC>>>::_Vector_impl_data" = type { ptr, ptr, ptr }
%"class.absl::lts_20230802::flat_hash_map.42" = type { %"class.absl::lts_20230802::container_internal::raw_hash_map.43" }
%"class.absl::lts_20230802::container_internal::raw_hash_map.43" = type { %"class.absl::lts_20230802::container_internal::raw_hash_set.44" }
%"class.absl::lts_20230802::container_internal::raw_hash_set.44" = type { %"class.absl::lts_20230802::container_internal::CompressedTuple.45" }
%"class.absl::lts_20230802::container_internal::CompressedTuple.45" = type { %"struct.absl::lts_20230802::container_internal::internal_compressed_tuple::CompressedTupleImpl.46" }
%"struct.absl::lts_20230802::container_internal::internal_compressed_tuple::CompressedTupleImpl.46" = type { %"struct.absl::lts_20230802::container_internal::internal_compressed_tuple::Storage" }
%"class.absl::lts_20230802::flat_hash_map.53" = type { %"class.absl::lts_20230802::container_internal::raw_hash_map.54" }
%"class.absl::lts_20230802::container_internal::raw_hash_map.54" = type { %"class.absl::lts_20230802::container_internal::raw_hash_set.55" }
%"class.absl::lts_20230802::container_internal::raw_hash_set.55" = type { %"class.absl::lts_20230802::container_internal::CompressedTuple.56" }
%"class.absl::lts_20230802::container_internal::CompressedTuple.56" = type { %"struct.absl::lts_20230802::container_internal::internal_compressed_tuple::CompressedTupleImpl.57" }
%"struct.absl::lts_20230802::container_internal::internal_compressed_tuple::CompressedTupleImpl.57" = type { %"struct.absl::lts_20230802::container_internal::internal_compressed_tuple::Storage" }
%"class.std::vector.62" = type { %"struct.std::_Vector_base.63" }
%"struct.std::_Vector_base.63" = type { %"struct.std::_Vector_base<std::unique_ptr<google::protobuf::compiler::cpp::MessageGenerator>, std::allocator<std::unique_ptr<google::protobuf::compiler::cpp::MessageGenerator>>>::_Vector_impl" }
%"struct.std::_Vector_base<std::unique_ptr<google::protobuf::compiler::cpp::MessageGenerator>, std::allocator<std::unique_ptr<google::protobuf::compiler::cpp::MessageGenerator>>>::_Vector_impl" = type { %"struct.std::_Vector_base<std::unique_ptr<google::protobuf::compiler::cpp::MessageGenerator>, std::allocator<std::unique_ptr<google::protobuf::compiler::cpp::MessageGenerator>>>::_Vector_impl_data" }
%"struct.std::_Vector_base<std::unique_ptr<google::protobuf::compiler::cpp::MessageGenerator>, std::allocator<std::unique_ptr<google::protobuf::compiler::cpp::MessageGenerator>>>::_Vector_impl_data" = type { ptr, ptr, ptr }
%"class.std::vector.67" = type { %"struct.std::_Vector_base.68" }
%"struct.std::_Vector_base.68" = type { %"struct.std::_Vector_base<int, std::allocator<int>>::_Vector_impl" }
%"struct.std::_Vector_base<int, std::allocator<int>>::_Vector_impl" = type { %"struct.std::_Vector_base<int, std::allocator<int>>::_Vector_impl_data" }
%"struct.std::_Vector_base<int, std::allocator<int>>::_Vector_impl_data" = type { ptr, ptr, ptr }
%"class.std::vector.72" = type { %"struct.std::_Vector_base.73" }
%"struct.std::_Vector_base.73" = type { %"struct.std::_Vector_base<std::unique_ptr<google::protobuf::compiler::cpp::EnumGenerator>, std::allocator<std::unique_ptr<google::protobuf::compiler::cpp::EnumGenerator>>>::_Vector_impl" }
%"struct.std::_Vector_base<std::unique_ptr<google::protobuf::compiler::cpp::EnumGenerator>, std::allocator<std::unique_ptr<google::protobuf::compiler::cpp::EnumGenerator>>>::_Vector_impl" = type { %"struct.std::_Vector_base<std::unique_ptr<google::protobuf::compiler::cpp::EnumGenerator>, std::allocator<std::unique_ptr<google::protobuf::compiler::cpp::EnumGenerator>>>::_Vector_impl_data" }
%"struct.std::_Vector_base<std::unique_ptr<google::protobuf::compiler::cpp::EnumGenerator>, std::allocator<std::unique_ptr<google::protobuf::compiler::cpp::EnumGenerator>>>::_Vector_impl_data" = type { ptr, ptr, ptr }
%"class.std::vector.77" = type { %"struct.std::_Vector_base.78" }
%"struct.std::_Vector_base.78" = type { %"struct.std::_Vector_base<std::unique_ptr<google::protobuf::compiler::cpp::ServiceGenerator>, std::allocator<std::unique_ptr<google::protobuf::compiler::cpp::ServiceGenerator>>>::_Vector_impl" }
%"struct.std::_Vector_base<std::unique_ptr<google::protobuf::compiler::cpp::ServiceGenerator>, std::allocator<std::unique_ptr<google::protobuf::compiler::cpp::ServiceGenerator>>>::_Vector_impl" = type { %"struct.std::_Vector_base<std::unique_ptr<google::protobuf::compiler::cpp::ServiceGenerator>, std::allocator<std::unique_ptr<google::protobuf::compiler::cpp::ServiceGenerator>>>::_Vector_impl_data" }
%"struct.std::_Vector_base<std::unique_ptr<google::protobuf::compiler::cpp::ServiceGenerator>, std::allocator<std::unique_ptr<google::protobuf::compiler::cpp::ServiceGenerator>>>::_Vector_impl_data" = type { ptr, ptr, ptr }
%"class.std::vector.82" = type { %"struct.std::_Vector_base.83" }
%"struct.std::_Vector_base.83" = type { %"struct.std::_Vector_base<std::unique_ptr<google::protobuf::compiler::cpp::ExtensionGenerator>, std::allocator<std::unique_ptr<google::protobuf::compiler::cpp::ExtensionGenerator>>>::_Vector_impl" }
%"struct.std::_Vector_base<std::unique_ptr<google::protobuf::compiler::cpp::ExtensionGenerator>, std::allocator<std::unique_ptr<google::protobuf::compiler::cpp::ExtensionGenerator>>>::_Vector_impl" = type { %"struct.std::_Vector_base<std::unique_ptr<google::protobuf::compiler::cpp::ExtensionGenerator>, std::allocator<std::unique_ptr<google::protobuf::compiler::cpp::ExtensionGenerator>>>::_Vector_impl_data" }
%"struct.std::_Vector_base<std::unique_ptr<google::protobuf::compiler::cpp::ExtensionGenerator>, std::allocator<std::unique_ptr<google::protobuf::compiler::cpp::ExtensionGenerator>>>::_Vector_impl_data" = type { ptr, ptr, ptr }
%class.anon.785 = type { ptr, ptr }
%class.anon.790 = type <{ %class.anon.785, i8, [7 x i8] }>

; Function Attrs: mustprogress uwtable
define internal void @"_ZZZN6google8protobuf8compiler3cpp13FileGenerator16GeneratePBHeaderEPNS0_2io7PrinterESt17basic_string_viewIcSt11char_traitsIcEEENK3$_0clEvENKUlvE0_clEv"(ptr noundef nonnull align 8 dereferenceable(16) %this) #4 align 2 {
entry:
  %this.addr = alloca ptr, align 8
  store ptr %this, ptr %this.addr, align 8
  %this1 = load ptr, ptr %this.addr, align 8
  %0 = getelementptr inbounds %class.anon.785, ptr %this1, i32 0, i32 0
  %1 = load ptr, ptr %0, align 8
  %options_ = getelementptr inbounds %"class.google::protobuf::compiler::cpp::FileGenerator", ptr %1, i32 0, i32 3
  %transitive_pb_h = getelementptr inbounds %"struct.google::protobuf::compiler::cpp::Options", ptr %options_, i32 0, i32 11
  %2 = load i8, ptr %transitive_pb_h, align 2
  %tobool = trunc i8 %2 to i1
  br i1 %tobool, label %if.then, label %if.end

if.then:                                          ; preds = %entry
  %3 = getelementptr inbounds %class.anon.785, ptr %this1, i32 0, i32 1
  %4 = load ptr, ptr %3, align 8
  %5 = load ptr, ptr %4, align 8
  call void @_ZN6google8protobuf8compiler3cpp13FileGenerator26GenerateDependencyIncludesEPNS0_2io7PrinterE(ptr noundef nonnull align 8 dereferenceable(752) %1, ptr noundef %5)
  br label %if.end

if.end:                                           ; preds = %if.then, %entry
  ret void
}

; Function Attrs: mustprogress uwtable
define internal noundef zeroext i1 @"_ZZN6google8protobuf2io7Printer9ValueImplILb1EE18ToStringOrCallbackIZZNS0_8compiler3cpp13FileGenerator16GeneratePBHeaderEPS2_St17basic_string_viewIcSt11char_traitsIcEEENK3$_0clEvEUlvE0_vEESt7variantIJNSt7__cxx1112basic_stringIcSC_SaIcEEESt8functionIFbvEEEEOT_NS4_5Rank2EENUlvE_clEv"(ptr noundef nonnull align 8 dereferenceable(17) %this) #4 align 2 {
entry:
  %retval = alloca i1, align 1
  %this.addr = alloca ptr, align 8
  store ptr %this, ptr %this.addr, align 8
  %this1 = load ptr, ptr %this.addr, align 8
  %0 = getelementptr inbounds %class.anon.790, ptr %this1, i32 0, i32 1
  %1 = load i8, ptr %0, align 8
  %tobool = trunc i8 %1 to i1
  br i1 %tobool, label %if.then, label %if.end

if.then:                                          ; preds = %entry
  store i1 false, ptr %retval, align 1
  br label %return

if.end:                                           ; preds = %entry
  %2 = getelementptr inbounds %class.anon.790, ptr %this1, i32 0, i32 1
  store i8 1, ptr %2, align 8
  %3 = getelementptr inbounds %class.anon.790, ptr %this1, i32 0, i32 0
  call void @"_ZZZN6google8protobuf8compiler3cpp13FileGenerator16GeneratePBHeaderEPNS0_2io7PrinterESt17basic_string_viewIcSt11char_traitsIcEEENK3$_0clEvENKUlvE0_clEv"(ptr noundef nonnull align 8 dereferenceable(16) %3)
  %4 = getelementptr inbounds %class.anon.790, ptr %this1, i32 0, i32 1
  store i8 0, ptr %4, align 8
  store i1 true, ptr %retval, align 1
  br label %return

return:                                           ; preds = %if.end, %if.then
  %5 = load i1, ptr %retval, align 1
  ret i1 %5
}

; Function Attrs: mustprogress nounwind uwtable
define linkonce_odr hidden noundef ptr @_ZNKSt9_Any_data9_M_accessEv(ptr noundef nonnull align 8 dereferenceable(16) %this) #5 comdat align 2 {
entry:
  %this.addr = alloca ptr, align 8
  store ptr %this, ptr %this.addr, align 8
  %this1 = load ptr, ptr %this.addr, align 8
  %arrayidx = getelementptr inbounds [16 x i8], ptr %this1, i64 0, i64 0
  ret ptr %arrayidx
}

; Function Attrs: mustprogress uwtable
define internal noundef zeroext i1 @"_ZSt13__invoke_implIbRZN6google8protobuf2io7Printer9ValueImplILb1EE18ToStringOrCallbackIZZNS1_8compiler3cpp13FileGenerator16GeneratePBHeaderEPS3_St17basic_string_viewIcSt11char_traitsIcEEENK3$_0clEvEUlvE0_vEESt7variantIJNSt7__cxx1112basic_stringIcSD_SaIcEEESt8functionIFbvEEEEOT_NS5_5Rank2EEUlvE_JEESQ_St14__invoke_otherOT0_DpOT1_"(ptr noundef nonnull align 8 dereferenceable(17) %__f) #4 {
entry:
  %__f.addr = alloca ptr, align 8
  store ptr %__f, ptr %__f.addr, align 8
  %0 = load ptr, ptr %__f.addr, align 8
  %call = call noundef zeroext i1 @"_ZZN6google8protobuf2io7Printer9ValueImplILb1EE18ToStringOrCallbackIZZNS0_8compiler3cpp13FileGenerator16GeneratePBHeaderEPS2_St17basic_string_viewIcSt11char_traitsIcEEENK3$_0clEvEUlvE0_vEESt7variantIJNSt7__cxx1112basic_stringIcSC_SaIcEEESt8functionIFbvEEEEOT_NS4_5Rank2EENUlvE_clEv"(ptr noundef nonnull align 8 dereferenceable(17) %0)
  ret i1 %call
}

; Function Attrs: mustprogress nounwind uwtable
define internal noundef nonnull align 8 dereferenceable(8) ptr @"_ZNKSt9_Any_data9_M_accessIPZN6google8protobuf2io7Printer9ValueImplILb1EE18ToStringOrCallbackIZZNS2_8compiler3cpp13FileGenerator16GeneratePBHeaderEPS4_St17basic_string_viewIcSt11char_traitsIcEEENK3$_0clEvEUlvE0_vEESt7variantIJNSt7__cxx1112basic_stringIcSE_SaIcEEESt8functionIFbvEEEEOT_NS6_5Rank2EEUlvE_EERKSR_v"(ptr noundef nonnull align 8 dereferenceable(16) %this) #5 align 2 {
entry:
  %this.addr = alloca ptr, align 8
  store ptr %this, ptr %this.addr, align 8
  %this1 = load ptr, ptr %this.addr, align 8
  %call = call noundef ptr @_ZNKSt9_Any_data9_M_accessEv(ptr noundef nonnull align 8 dereferenceable(16) %this1) #3
  ret ptr %call
}

; Function Attrs: mustprogress uwtable
define internal noundef zeroext i1 @"_ZSt10__invoke_rIbRZN6google8protobuf2io7Printer9ValueImplILb1EE18ToStringOrCallbackIZZNS1_8compiler3cpp13FileGenerator16GeneratePBHeaderEPS3_St17basic_string_viewIcSt11char_traitsIcEEENK3$_0clEvEUlvE0_vEESt7variantIJNSt7__cxx1112basic_stringIcSD_SaIcEEESt8functionIFbvEEEEOT_NS5_5Rank2EEUlvE_JEENSt9enable_ifIX16is_invocable_r_vISQ_T0_DpT1_EESQ_E4typeEOSW_DpOSX_"(ptr noundef nonnull align 8 dereferenceable(17) %__fn) #4 {
entry:
  %__fn.addr = alloca ptr, align 8
  store ptr %__fn, ptr %__fn.addr, align 8
  %0 = load ptr, ptr %__fn.addr, align 8
  %call = call noundef zeroext i1 @"_ZSt13__invoke_implIbRZN6google8protobuf2io7Printer9ValueImplILb1EE18ToStringOrCallbackIZZNS1_8compiler3cpp13FileGenerator16GeneratePBHeaderEPS3_St17basic_string_viewIcSt11char_traitsIcEEENK3$_0clEvEUlvE0_vEESt7variantIJNSt7__cxx1112basic_stringIcSD_SaIcEEESt8functionIFbvEEEEOT_NS5_5Rank2EEUlvE_JEESQ_St14__invoke_otherOT0_DpOT1_"(ptr noundef nonnull align 8 dereferenceable(17) %0)
  ret i1 %call
}

; Function Attrs: mustprogress nounwind uwtable
define internal noundef ptr @"_ZNSt14_Function_base13_Base_managerIZN6google8protobuf2io7Printer9ValueImplILb1EE18ToStringOrCallbackIZZNS2_8compiler3cpp13FileGenerator16GeneratePBHeaderEPS4_St17basic_string_viewIcSt11char_traitsIcEEENK3$_0clEvEUlvE0_vEESt7variantIJNSt7__cxx1112basic_stringIcSE_SaIcEEESt8functionIFbvEEEEOT_NS6_5Rank2EEUlvE_E14_M_get_pointerERKSt9_Any_data"(ptr noundef nonnull align 8 dereferenceable(16) %__source) #5 align 2 {
entry:
  %__source.addr = alloca ptr, align 8
  store ptr %__source, ptr %__source.addr, align 8
  %0 = load ptr, ptr %__source.addr, align 8
  %call = call noundef nonnull align 8 dereferenceable(8) ptr @"_ZNKSt9_Any_data9_M_accessIPZN6google8protobuf2io7Printer9ValueImplILb1EE18ToStringOrCallbackIZZNS2_8compiler3cpp13FileGenerator16GeneratePBHeaderEPS4_St17basic_string_viewIcSt11char_traitsIcEEENK3$_0clEvEUlvE0_vEESt7variantIJNSt7__cxx1112basic_stringIcSE_SaIcEEESt8functionIFbvEEEEOT_NS6_5Rank2EEUlvE_EERKSR_v"(ptr noundef nonnull align 8 dereferenceable(16) %0) #3
  %1 = load ptr, ptr %call, align 8
  ret ptr %1
}

; Function Attrs: mustprogress uwtable
define internal noundef zeroext i1 @"_ZNSt17_Function_handlerIFbvEZN6google8protobuf2io7Printer9ValueImplILb1EE18ToStringOrCallbackIZZNS2_8compiler3cpp13FileGenerator16GeneratePBHeaderEPS4_St17basic_string_viewIcSt11char_traitsIcEEENK3$_0clEvEUlvE0_vEESt7variantIJNSt7__cxx1112basic_stringIcSE_SaIcEEESt8functionIS0_EEEOT_NS6_5Rank2EEUlvE_E9_M_invokeERKSt9_Any_data"(ptr noundef nonnull align 8 dereferenceable(16) %__functor) #4 align 2 {
entry:
  %__functor.addr = alloca ptr, align 8
  store ptr %__functor, ptr %__functor.addr, align 8
  %0 = load ptr, ptr %__functor.addr, align 8
  %call = call noundef ptr @"_ZNSt14_Function_base13_Base_managerIZN6google8protobuf2io7Printer9ValueImplILb1EE18ToStringOrCallbackIZZNS2_8compiler3cpp13FileGenerator16GeneratePBHeaderEPS4_St17basic_string_viewIcSt11char_traitsIcEEENK3$_0clEvEUlvE0_vEESt7variantIJNSt7__cxx1112basic_stringIcSE_SaIcEEESt8functionIFbvEEEEOT_NS6_5Rank2EEUlvE_E14_M_get_pointerERKSt9_Any_data"(ptr noundef nonnull align 8 dereferenceable(16) %0) #3
  %call1 = call noundef zeroext i1 @"_ZSt10__invoke_rIbRZN6google8protobuf2io7Printer9ValueImplILb1EE18ToStringOrCallbackIZZNS1_8compiler3cpp13FileGenerator16GeneratePBHeaderEPS3_St17basic_string_viewIcSt11char_traitsIcEEENK3$_0clEvEUlvE0_vEESt7variantIJNSt7__cxx1112basic_stringIcSD_SaIcEEESt8functionIFbvEEEEOT_NS5_5Rank2EEUlvE_JEENSt9enable_ifIX16is_invocable_r_vISQ_T0_DpT1_EESQ_E4typeEOSW_DpOSX_"(ptr noundef nonnull align 8 dereferenceable(17) %call)
  ret i1 %call1
}