; Function Attrs: mustprogress uwtable
define internal noundef zeroext i1 @"_ZNSt17_Function_handlerIFbvEZN6google8protobuf2io7Printer9ValueImplILb1EE18ToStringOrCallbackIZZNS2_8compiler3cpp13FileGenerator16GeneratePBHeaderEPS4_St17basic_string_viewIcSt11char_traitsIcEEENK3$_0clEvEUlvE0_vEESt7variantIJNSt7__cxx1112basic_stringIcSE_SaIcEEESt8functionIS0_EEEOT_NS6_5Rank2EEUlvE_E9_M_invokeERKSt9_Any_data"(ptr nocapture noundef nonnull readonly align 8 dereferenceable(16) %__functor) #3 align 2 {
entry:
  %__functor.val = load ptr, ptr %__functor, align 8
  %0 = getelementptr inbounds i8, ptr %__functor.val, i64 16
  %1 = load i8, ptr %0, align 8
  %2 = and i8 %1, 1
  %tobool.not.i.i.i = icmp eq i8 %2, 0
  br i1 %tobool.not.i.i.i, label %if.end.i.i.i, label %"_ZSt10__invoke_rIbRZN6google8protobuf2io7Printer9ValueImplILb1EE18ToStringOrCallbackIZZNS1_8compiler3cpp13FileGenerator16GeneratePBHeaderEPS3_St17basic_string_viewIcSt11char_traitsIcEEENK3$_0clEvEUlvE0_vEESt7variantIJNSt7__cxx1112basic_stringIcSD_SaIcEEESt8functionIFbvEEEEOT_NS5_5Rank2EEUlvE_JEENSt9enable_ifIX16is_invocable_r_vISQ_T0_DpT1_EESQ_E4typeEOSW_DpOSX_.exit"

if.end.i.i.i:                                     ; preds = %entry
  store i8 1, ptr %0, align 8
  %this.val.i.i.i = load ptr, ptr %__functor.val, align 8
  %transitive_pb_h.i.i.i.i = getelementptr inbounds i8, ptr %this.val.i.i.i, i64 258
  %3 = load i8, ptr %transitive_pb_h.i.i.i.i, align 2
  %4 = and i8 %3, 1
  %tobool.not.i.i.i.i = icmp eq i8 %4, 0
  br i1 %tobool.not.i.i.i.i, label %"_ZZZN6google8protobuf8compiler3cpp13FileGenerator16GeneratePBHeaderEPNS0_2io7PrinterESt17basic_string_viewIcSt11char_traitsIcEEENK3$_0clEvENKUlvE0_clEv.exit.i.i.i", label %if.then.i.i.i.i

if.then.i.i.i.i:                                  ; preds = %if.end.i.i.i
  %5 = getelementptr inbounds i8, ptr %__functor.val, i64 8
  %this.val1.i.i.i = load ptr, ptr %5, align 8
  %6 = load ptr, ptr %this.val1.i.i.i, align 8
  tail call void @_ZN6google8protobuf8compiler3cpp13FileGenerator26GenerateDependencyIncludesEPNS0_2io7PrinterE(ptr noundef nonnull align 8 dereferenceable(752) %this.val.i.i.i, ptr noundef %6)
  br label %"_ZZZN6google8protobuf8compiler3cpp13FileGenerator16GeneratePBHeaderEPNS0_2io7PrinterESt17basic_string_viewIcSt11char_traitsIcEEENK3$_0clEvENKUlvE0_clEv.exit.i.i.i"

"_ZZZN6google8protobuf8compiler3cpp13FileGenerator16GeneratePBHeaderEPNS0_2io7PrinterESt17basic_string_viewIcSt11char_traitsIcEEENK3$_0clEvENKUlvE0_clEv.exit.i.i.i": ; preds = %if.then.i.i.i.i, %if.end.i.i.i
  store i8 0, ptr %0, align 8
  br label %"_ZSt10__invoke_rIbRZN6google8protobuf2io7Printer9ValueImplILb1EE18ToStringOrCallbackIZZNS1_8compiler3cpp13FileGenerator16GeneratePBHeaderEPS3_St17basic_string_viewIcSt11char_traitsIcEEENK3$_0clEvEUlvE0_vEESt7variantIJNSt7__cxx1112basic_stringIcSD_SaIcEEESt8functionIFbvEEEEOT_NS5_5Rank2EEUlvE_JEENSt9enable_ifIX16is_invocable_r_vISQ_T0_DpT1_EESQ_E4typeEOSW_DpOSX_.exit"

"_ZSt10__invoke_rIbRZN6google8protobuf2io7Printer9ValueImplILb1EE18ToStringOrCallbackIZZNS1_8compiler3cpp13FileGenerator16GeneratePBHeaderEPS3_St17basic_string_viewIcSt11char_traitsIcEEENK3$_0clEvEUlvE0_vEESt7variantIJNSt7__cxx1112basic_stringIcSD_SaIcEEESt8functionIFbvEEEEOT_NS5_5Rank2EEUlvE_JEENSt9enable_ifIX16is_invocable_r_vISQ_T0_DpT1_EESQ_E4typeEOSW_DpOSX_.exit": ; preds = %entry, %"_ZZZN6google8protobuf8compiler3cpp13FileGenerator16GeneratePBHeaderEPNS0_2io7PrinterESt17basic_string_viewIcSt11char_traitsIcEEENK3$_0clEvENKUlvE0_clEv.exit.i.i.i"
  ret i1 %tobool.not.i.i.i
}